target datalayout = "e-m:e-p270:32:32-p271:32:32-p272:64:64-i64:64-i128:128-f80:128-n8:16:32:64-S128"
target triple = "x86_64-pc-linux-gnu"

%"struct.llvm::itanium_demangle::AbstractManglingParser" = type { ptr, ptr, %"class.llvm::itanium_demangle::PODSmallVector", %"class.llvm::itanium_demangle::PODSmallVector", %"class.llvm::itanium_demangle::PODSmallVector.0", %"class.llvm::itanium_demangle::PODSmallVector.1", %"class.llvm::itanium_demangle::PODSmallVector.2", i8, i8, i8, i64, [3 x i32], [12 x i8], %"class.(anonymous namespace)::DefaultAllocator" }
%"class.llvm::itanium_demangle::PODSmallVector" = type { ptr, ptr, ptr, [32 x ptr] }
%"class.llvm::itanium_demangle::PODSmallVector.0" = type { ptr, ptr, ptr, [8 x ptr] }
%"class.llvm::itanium_demangle::PODSmallVector.1" = type { ptr, ptr, ptr, [4 x ptr] }
%"class.llvm::itanium_demangle::PODSmallVector.2" = type { ptr, ptr, ptr, [4 x ptr] }
%"class.(anonymous namespace)::DefaultAllocator" = type { %"class.(anonymous namespace)::BumpPointerAllocator" }
%"class.(anonymous namespace)::BumpPointerAllocator" = type { [4096 x i8], ptr, [8 x i8] }
%"class.llvm::itanium_demangle::Node" = type <{ ptr, i8, i16, [5 x i8] }>
%"class.llvm::itanium_demangle::Node.base" = type <{ ptr, i8, i16 }>
%"struct.llvm::itanium_demangle::LocalName" = type { %"class.llvm::itanium_demangle::Node.base", ptr, ptr }
%"struct.(anonymous namespace)::BumpPointerAllocator::BlockMeta" = type { ptr, i64 }

; Function Attrs: mustprogress nounwind uwtable
define linkonce_odr hidden void @_ZN4llvm16itanium_demangle4NodeC2ENS1_4KindENS1_4PrecENS1_5CacheES4_S4_(ptr noundef nonnull align 8 dereferenceable(11) %0, i8 noundef zeroext %1, i32 noundef %2, i8 noundef zeroext %3, i8 noundef zeroext %4, i8 noundef zeroext %5) unnamed_addr #0 comdat align 2 {
  %7 = alloca ptr, align 8
  %8 = alloca i8, align 1
  %9 = alloca i32, align 4
  %10 = alloca i8, align 1
  %11 = alloca i8, align 1
  %12 = alloca i8, align 1
  store ptr %0, ptr %7, align 8
  store i8 %1, ptr %8, align 1
  store i32 %2, ptr %9, align 4
  store i8 %3, ptr %10, align 1
  store i8 %4, ptr %11, align 1
  store i8 %5, ptr %12, align 1
  %13 = load ptr, ptr %7, align 8
  store ptr getelementptr inbounds inrange(-16, 72) ({ [11 x ptr] }, ptr @_ZTVN4llvm16itanium_demangle4NodeE, i32 0, i32 0, i32 2), ptr %13, align 8
  %14 = getelementptr inbounds nuw %"class.llvm::itanium_demangle::Node", ptr %13, i32 0, i32 1
  %15 = load i8, ptr %8, align 1
  store i8 %15, ptr %14, align 8
  %16 = getelementptr inbounds nuw %"class.llvm::itanium_demangle::Node", ptr %13, i32 0, i32 2
  %17 = load i32, ptr %9, align 4
  %18 = trunc i32 %17 to i16
  %19 = load i16, ptr %16, align 1
  %20 = and i16 %18, 63
  %21 = and i16 %19, -64
  %22 = or i16 %21, %20
  store i16 %22, ptr %16, align 1
  %23 = getelementptr inbounds nuw %"class.llvm::itanium_demangle::Node", ptr %13, i32 0, i32 2
  %24 = load i8, ptr %10, align 1
  %25 = zext i8 %24 to i16
  %26 = load i16, ptr %23, align 1
  %27 = and i16 %25, 3
  %28 = shl i16 %27, 6
  %29 = and i16 %26, -193
  %30 = or i16 %29, %28
  store i16 %30, ptr %23, align 1
  %31 = getelementptr inbounds nuw %"class.llvm::itanium_demangle::Node", ptr %13, i32 0, i32 2
  %32 = load i8, ptr %11, align 1
  %33 = zext i8 %32 to i16
  %34 = load i16, ptr %31, align 1
  %35 = and i16 %33, 3
  %36 = shl i16 %35, 8
  %37 = and i16 %34, -769
  %38 = or i16 %37, %36
  store i16 %38, ptr %31, align 1
  %39 = getelementptr inbounds nuw %"class.llvm::itanium_demangle::Node", ptr %13, i32 0, i32 2
  %40 = load i8, ptr %12, align 1
  %41 = zext i8 %40 to i16
  %42 = load i16, ptr %39, align 1
  %43 = and i16 %41, 3
  %44 = shl i16 %43, 10
  %45 = and i16 %42, -3073
  %46 = or i16 %45, %44
  store i16 %46, ptr %39, align 1
  ret void
}

; Function Attrs: mustprogress nounwind uwtable
define internal void @_ZN12_GLOBAL__N_120BumpPointerAllocator4growEv(ptr noundef nonnull align 16 dereferenceable(4104) %0) #0 align 2 {
  %2 = alloca ptr, align 8
  %3 = alloca ptr, align 8
  store ptr %0, ptr %2, align 8
  %4 = load ptr, ptr %2, align 8
  %5 = call noalias ptr @malloc(i64 noundef 4096) #19
  store ptr %5, ptr %3, align 8
  %6 = load ptr, ptr %3, align 8
  %7 = icmp eq ptr %6, null
  br i1 %7, label %8, label %9

8:                                                ; preds = %1
  call void @_ZSt9terminatev() #18
  unreachable

9:                                                ; preds = %1
  %10 = load ptr, ptr %3, align 8
  %11 = getelementptr inbounds nuw %"struct.(anonymous namespace)::BumpPointerAllocator::BlockMeta", ptr %10, i32 0, i32 0
  %12 = getelementptr inbounds nuw %"class.(anonymous namespace)::BumpPointerAllocator", ptr %4, i32 0, i32 1
  %13 = load ptr, ptr %12, align 16
  store ptr %13, ptr %11, align 8
  %14 = getelementptr inbounds nuw %"struct.(anonymous namespace)::BumpPointerAllocator::BlockMeta", ptr %10, i32 0, i32 1
  store i64 0, ptr %14, align 8
  %15 = getelementptr inbounds nuw %"class.(anonymous namespace)::BumpPointerAllocator", ptr %4, i32 0, i32 1
  store ptr %10, ptr %15, align 16
  ret void
}

; Function Attrs: mustprogress nounwind uwtable
define internal noundef ptr @_ZN12_GLOBAL__N_120BumpPointerAllocator15allocateMassiveEm(ptr noundef nonnull align 16 dereferenceable(4104) %0, i64 noundef %1) #0 align 2 {
  %3 = alloca ptr, align 8
  %4 = alloca i64, align 8
  %5 = alloca ptr, align 8
  store ptr %0, ptr %3, align 8
  store i64 %1, ptr %4, align 8
  %6 = load ptr, ptr %3, align 8
  %7 = load i64, ptr %4, align 8
  %8 = add i64 %7, 16
  store i64 %8, ptr %4, align 8
  %9 = load i64, ptr %4, align 8
  %10 = call noalias ptr @malloc(i64 noundef %9) #19
  store ptr %10, ptr %5, align 8
  %11 = load ptr, ptr %5, align 8
  %12 = icmp eq ptr %11, null
  br i1 %12, label %13, label %14

13:                                               ; preds = %2
  call void @_ZSt9terminatev() #18
  unreachable

14:                                               ; preds = %2
  %15 = load ptr, ptr %5, align 8
  %16 = getelementptr inbounds nuw %"struct.(anonymous namespace)::BumpPointerAllocator::BlockMeta", ptr %15, i32 0, i32 0
  %17 = getelementptr inbounds nuw %"class.(anonymous namespace)::BumpPointerAllocator", ptr %6, i32 0, i32 1
  %18 = load ptr, ptr %17, align 16
  %19 = getelementptr inbounds nuw %"struct.(anonymous namespace)::BumpPointerAllocator::BlockMeta", ptr %18, i32 0, i32 0
  %20 = load ptr, ptr %19, align 8
  store ptr %20, ptr %16, align 8
  %21 = getelementptr inbounds nuw %"struct.(anonymous namespace)::BumpPointerAllocator::BlockMeta", ptr %15, i32 0, i32 1
  store i64 0, ptr %21, align 8
  %22 = getelementptr inbounds nuw %"class.(anonymous namespace)::BumpPointerAllocator", ptr %6, i32 0, i32 1
  %23 = load ptr, ptr %22, align 16
  %24 = getelementptr inbounds nuw %"struct.(anonymous namespace)::BumpPointerAllocator::BlockMeta", ptr %23, i32 0, i32 0
  store ptr %15, ptr %24, align 8
  %25 = load ptr, ptr %5, align 8
  %26 = getelementptr inbounds %"struct.(anonymous namespace)::BumpPointerAllocator::BlockMeta", ptr %25, i64 1
  ret ptr %26
}

; Function Attrs: mustprogress nounwind uwtable
define linkonce_odr hidden void @_ZN4llvm16itanium_demangle9LocalNameC2EPNS0_4NodeES3_(ptr noundef nonnull align 8 dereferenceable(32) %0, ptr noundef %1, ptr noundef %2) unnamed_addr #0 comdat align 2 {
  %4 = alloca ptr, align 8
  %5 = alloca ptr, align 8
  %6 = alloca ptr, align 8
  store ptr %0, ptr %4, align 8
  store ptr %1, ptr %5, align 8
  store ptr %2, ptr %6, align 8
  %7 = load ptr, ptr %4, align 8
  call void @_ZN4llvm16itanium_demangle4NodeC2ENS1_4KindENS1_4PrecENS1_5CacheES4_S4_(ptr noundef nonnull align 8 dereferenceable(11) %7, i8 noundef zeroext 26, i32 noundef 0, i8 noundef zeroext 1, i8 noundef zeroext 1, i8 noundef zeroext 1)
  store ptr getelementptr inbounds inrange(-16, 72) ({ [11 x ptr] }, ptr @_ZTVN4llvm16itanium_demangle9LocalNameE, i32 0, i32 0, i32 2), ptr %7, align 8
  %8 = getelementptr inbounds nuw %"struct.llvm::itanium_demangle::LocalName", ptr %7, i32 0, i32 1
  %9 = load ptr, ptr %5, align 8
  store ptr %9, ptr %8, align 8
  %10 = getelementptr inbounds nuw %"struct.llvm::itanium_demangle::LocalName", ptr %7, i32 0, i32 2
  %11 = load ptr, ptr %6, align 8
  store ptr %11, ptr %10, align 8
  ret void
}

; Function Attrs: mustprogress nounwind uwtable
define internal noundef ptr @_ZN12_GLOBAL__N_120BumpPointerAllocator8allocateEm(ptr noundef nonnull align 16 dereferenceable(4104) %0, i64 noundef %1) #0 align 2 {
  %3 = alloca ptr, align 8
  %4 = alloca ptr, align 8
  %5 = alloca i64, align 8
  store ptr %0, ptr %4, align 8
  store i64 %1, ptr %5, align 8
  %6 = load ptr, ptr %4, align 8
  %7 = load i64, ptr %5, align 8
  %8 = add i64 %7, 15
  %9 = and i64 %8, 4294967280
  store i64 %9, ptr %5, align 8
  %10 = load i64, ptr %5, align 8
  %11 = getelementptr inbounds nuw %"class.(anonymous namespace)::BumpPointerAllocator", ptr %6, i32 0, i32 1
  %12 = load ptr, ptr %11, align 16
  %13 = getelementptr inbounds nuw %"struct.(anonymous namespace)::BumpPointerAllocator::BlockMeta", ptr %12, i32 0, i32 1
  %14 = load i64, ptr %13, align 8
  %15 = add i64 %10, %14
  %16 = icmp uge i64 %15, 4080
  br i1 %16, label %17, label %24

17:                                               ; preds = %2
  %18 = load i64, ptr %5, align 8
  %19 = icmp ugt i64 %18, 4080
  br i1 %19, label %20, label %23

20:                                               ; preds = %17
  %21 = load i64, ptr %5, align 8
  %22 = call noundef ptr @_ZN12_GLOBAL__N_120BumpPointerAllocator15allocateMassiveEm(ptr noundef nonnull align 16 dereferenceable(4104) %6, i64 noundef %21)
  store ptr %22, ptr %3, align 8
  br label %42

23:                                               ; preds = %17
  call void @_ZN12_GLOBAL__N_120BumpPointerAllocator4growEv(ptr noundef nonnull align 16 dereferenceable(4104) %6)
  br label %24

24:                                               ; preds = %23, %2
  %25 = load i64, ptr %5, align 8
  %26 = getelementptr inbounds nuw %"class.(anonymous namespace)::BumpPointerAllocator", ptr %6, i32 0, i32 1
  %27 = load ptr, ptr %26, align 16
  %28 = getelementptr inbounds nuw %"struct.(anonymous namespace)::BumpPointerAllocator::BlockMeta", ptr %27, i32 0, i32 1
  %29 = load i64, ptr %28, align 8
  %30 = add i64 %29, %25
  store i64 %30, ptr %28, align 8
  %31 = getelementptr inbounds nuw %"class.(anonymous namespace)::BumpPointerAllocator", ptr %6, i32 0, i32 1
  %32 = load ptr, ptr %31, align 16
  %33 = getelementptr inbounds %"struct.(anonymous namespace)::BumpPointerAllocator::BlockMeta", ptr %32, i64 1
  %34 = getelementptr inbounds nuw %"class.(anonymous namespace)::BumpPointerAllocator", ptr %6, i32 0, i32 1
  %35 = load ptr, ptr %34, align 16
  %36 = getelementptr inbounds nuw %"struct.(anonymous namespace)::BumpPointerAllocator::BlockMeta", ptr %35, i32 0, i32 1
  %37 = load i64, ptr %36, align 8
  %38 = getelementptr inbounds i8, ptr %33, i64 %37
  %39 = load i64, ptr %5, align 8
  %40 = sub i64 0, %39
  %41 = getelementptr inbounds i8, ptr %38, i64 %40
  store ptr %41, ptr %3, align 8
  br label %42

42:                                               ; preds = %24, %20
  %43 = load ptr, ptr %3, align 8
  ret ptr %43
}

; Function Attrs: mustprogress nounwind uwtable
define internal noundef ptr @_ZN12_GLOBAL__N_116DefaultAllocator8makeNodeIN4llvm16itanium_demangle9LocalNameEJRPNS3_4NodeES7_EEEPT_DpOT0_(ptr noundef nonnull align 16 dereferenceable(4112) %0, ptr noundef nonnull align 8 dereferenceable(8) %1, ptr noundef nonnull align 8 dereferenceable(8) %2) #0 align 2 {
  %4 = alloca ptr, align 8
  %5 = alloca ptr, align 8
  %6 = alloca ptr, align 8
  store ptr %0, ptr %4, align 8
  store ptr %1, ptr %5, align 8
  store ptr %2, ptr %6, align 8
  %7 = load ptr, ptr %4, align 8
  %8 = getelementptr inbounds nuw %"class.(anonymous namespace)::DefaultAllocator", ptr %7, i32 0, i32 0
  %9 = call noundef ptr @_ZN12_GLOBAL__N_120BumpPointerAllocator8allocateEm(ptr noundef nonnull align 16 dereferenceable(4104) %8, i64 noundef 32)
  %10 = load ptr, ptr %5, align 8
  %11 = load ptr, ptr %10, align 8
  %12 = load ptr, ptr %6, align 8
  %13 = load ptr, ptr %12, align 8
  call void @_ZN4llvm16itanium_demangle9LocalNameC2EPNS0_4NodeES3_(ptr noundef nonnull align 8 dereferenceable(32) %9, ptr noundef %11, ptr noundef %13)
  ret ptr %9
}

; Function Attrs: mustprogress nounwind uwtable
define internal noundef ptr @_ZN4llvm16itanium_demangle22AbstractManglingParserINS0_14ManglingParserIN12_GLOBAL__N_116DefaultAllocatorEEES4_E4makeINS0_9LocalNameEJRPNS0_4NodeESB_EEESA_DpOT0_(ptr noundef nonnull align 16 dereferenceable(4928) %0, ptr noundef nonnull align 8 dereferenceable(8) %1, ptr noundef nonnull align 8 dereferenceable(8) %2) #0 align 2 {
  %4 = alloca ptr, align 8
  %5 = alloca ptr, align 8
  %6 = alloca ptr, align 8
  store ptr %0, ptr %4, align 8
  store ptr %1, ptr %5, align 8
  store ptr %2, ptr %6, align 8
  %7 = load ptr, ptr %4, align 8
  %8 = getelementptr inbounds nuw %"struct.llvm::itanium_demangle::AbstractManglingParser", ptr %7, i32 0, i32 13
  %9 = load ptr, ptr %5, align 8
  %10 = load ptr, ptr %6, align 8
  %11 = call noundef ptr @_ZN12_GLOBAL__N_116DefaultAllocator8makeNodeIN4llvm16itanium_demangle9LocalNameEJRPNS3_4NodeES7_EEEPT_DpOT0_(ptr noundef nonnull align 16 dereferenceable(4112) %8, ptr noundef nonnull align 8 dereferenceable(8) %9, ptr noundef nonnull align 8 dereferenceable(8) %10)
  ret ptr %11
}